; Function Attrs: nounwind uwtable
define internal i32 @key_to_epki_der_priv_bio(ptr noundef %0, ptr noundef %1, i32 noundef %2, ptr readnone captures(none) %3, ptr noundef readonly captures(address_is_null) %4, ptr noundef readonly captures(none) %5, ptr noundef %6) #0 {
  %8 = alloca ptr, align 8
  %9 = alloca i32, align 4
  call void @llvm.lifetime.start.p0(i64 8, ptr nonnull %8) #5
  store ptr null, ptr %8, align 8, !tbaa !21
  call void @llvm.lifetime.start.p0(i64 4, ptr nonnull %9) #5
  store i32 -1, ptr %9, align 4, !tbaa !20
  %10 = getelementptr inbounds nuw i8, ptr %6, i64 12
  %11 = load i32, ptr %10, align 4, !tbaa !17
  %.not = icmp eq i32 %11, 0
  br i1 %.not, label %24, label %12

12:                                               ; preds = %7
  %.not18 = icmp eq ptr %4, null
  br i1 %.not18, label %17, label %13

13:                                               ; preds = %12
  %14 = getelementptr inbounds nuw i8, ptr %6, i64 8
  %15 = load i32, ptr %14, align 8, !tbaa !14
  %16 = call i32 %4(ptr noundef %1, i32 noundef %2, i32 noundef %15, ptr noundef nonnull %8, ptr noundef nonnull %9) #5
  %.not19 = icmp eq i32 %16, 0
  br i1 %.not19, label %24, label %._crit_edge

._crit_edge:                                      ; preds = %13
  %.pre = load ptr, ptr %8, align 8, !tbaa !21
  %.pre21 = load i32, ptr %9, align 4, !tbaa !20
  br label %17

17:                                               ; preds = %._crit_edge, %12
  %18 = phi i32 [ %.pre21, %._crit_edge ], [ -1, %12 ]
  %19 = phi ptr [ %.pre, %._crit_edge ], [ null, %12 ]
  %20 = call fastcc ptr @key_to_encp8(ptr noundef %1, i32 noundef %2, ptr noundef %19, i32 noundef %18, ptr noundef %5, ptr noundef nonnull %6)
  %.not20 = icmp eq ptr %20, null
  br i1 %.not20, label %23, label %21

21:                                               ; preds = %17
  %22 = call i32 @i2d_PKCS8_bio(ptr noundef %0, ptr noundef nonnull %20) #5
  br label %23

23:                                               ; preds = %21, %17
  %.015 = phi i32 [ %22, %21 ], [ 0, %17 ]
  call void @X509_SIG_free(ptr noundef %20) #5
  br label %24

24:                                               ; preds = %13, %7, %23
  %.0 = phi i32 [ %.015, %23 ], [ 0, %7 ], [ 0, %13 ]
  call void @llvm.lifetime.end.p0(i64 4, ptr nonnull %9) #5
  call void @llvm.lifetime.end.p0(i64 8, ptr nonnull %8) #5
  ret i32 %.0
}